; ModuleID = '20/510.c'
source_filename = "20/510.c"
target datalayout = "e-m:e-p270:32:32-p271:32:32-p272:64:64-i64:64-f80:128-n8:16:32:64-S128"
target triple = "x86_64-pc-linux-gnu"

@.str = private unnamed_addr constant [6 x i8] c"%s %s\00", align 1
@.str.1 = private unnamed_addr constant [3 x i8] c"%c\00", align 1
@.str.2 = private unnamed_addr constant [3 x i8] c"%s\00", align 1
@.str.3 = private unnamed_addr constant [2 x i8] c"\0A\00", align 1

; Function Attrs: noinline nounwind uwtable
define dso_local void @main() #0 {
  %1 = alloca [11 x i8], align 1
  %2 = alloca [5 x i8], align 1
  %3 = alloca i32, align 4
  %4 = alloca i32, align 4
  %5 = alloca i8*, align 8
  %6 = alloca i8, align 1
  br label %7

7:                                                ; preds = %84, %0
  %8 = call i32 (i8*, ...) @__isoc99_scanf(i8* getelementptr inbounds ([6 x i8], [6 x i8]* @.str, i64 0, i64 0), [11 x i8]* %1, [5 x i8]* %2)
  %9 = icmp ne i32 %8, -1
  br i1 %9, label %10, label %85

10:                                               ; preds = %7
  store i32 0, i32* %3, align 4
  store i32 0, i32* %4, align 4
  %11 = getelementptr inbounds [11 x i8], [11 x i8]* %1, i64 0, i64 0
  store i8* %11, i8** %5, align 8
  %12 = getelementptr inbounds [11 x i8], [11 x i8]* %1, i64 0, i64 0
  %13 = load i8, i8* %12, align 1
  store i8 %13, i8* %6, align 1
  br label %14

14:                                               ; preds = %31, %10
  %15 = load i8*, i8** %5, align 8
  %16 = load i8, i8* %15, align 1
  %17 = sext i8 %16 to i32
  %18 = icmp ne i32 %17, 0
  br i1 %18, label %19, label %36

19:                                               ; preds = %14
  %20 = load i8*, i8** %5, align 8
  %21 = load i8, i8* %20, align 1
  %22 = sext i8 %21 to i32
  %23 = load i8, i8* %6, align 1
  %24 = sext i8 %23 to i32
  %25 = icmp sgt i32 %22, %24
  br i1 %25, label %26, label %30

26:                                               ; preds = %19
  %27 = load i8*, i8** %5, align 8
  %28 = load i8, i8* %27, align 1
  store i8 %28, i8* %6, align 1
  %29 = load i32, i32* %4, align 4
  store i32 %29, i32* %3, align 4
  br label %30

30:                                               ; preds = %26, %19
  br label %31

31:                                               ; preds = %30
  %32 = load i8*, i8** %5, align 8
  %33 = getelementptr inbounds i8, i8* %32, i32 1
  store i8* %33, i8** %5, align 8
  %34 = load i32, i32* %4, align 4
  %35 = add nsw i32 %34, 1
  store i32 %35, i32* %4, align 4
  br label %14

36:                                               ; preds = %14
  %37 = getelementptr inbounds [11 x i8], [11 x i8]* %1, i64 0, i64 0
  store i8* %37, i8** %5, align 8
  br label %38

38:                                               ; preds = %50, %36
  %39 = load i8*, i8** %5, align 8
  %40 = getelementptr inbounds [11 x i8], [11 x i8]* %1, i64 0, i64 0
  %41 = load i32, i32* %3, align 4
  %42 = sext i32 %41 to i64
  %43 = getelementptr inbounds i8, i8* %40, i64 %42
  %44 = icmp ule i8* %39, %43
  br i1 %44, label %45, label %53

45:                                               ; preds = %38
  %46 = load i8*, i8** %5, align 8
  %47 = load i8, i8* %46, align 1
  %48 = sext i8 %47 to i32
  %49 = call i32 (i8*, ...) @printf(i8* getelementptr inbounds ([3 x i8], [3 x i8]* @.str.1, i64 0, i64 0), i32 %48)
  br label %50

50:                                               ; preds = %45
  %51 = load i8*, i8** %5, align 8
  %52 = getelementptr inbounds i8, i8* %51, i32 1
  store i8* %52, i8** %5, align 8
  br label %38

53:                                               ; preds = %38
  %54 = getelementptr inbounds [5 x i8], [5 x i8]* %2, i64 0, i64 0
  %55 = call i32 (i8*, ...) @printf(i8* getelementptr inbounds ([3 x i8], [3 x i8]* @.str.2, i64 0, i64 0), i8* %54)
  %56 = load i32, i32* %3, align 4
  %57 = sext i32 %56 to i64
  %58 = getelementptr inbounds [11 x i8], [11 x i8]* %1, i64 0, i64 0
  %59 = call i64 @strlen(i8* %58) #3
  %60 = icmp ult i64 %57, %59
  br i1 %60, label %61, label %82

61:                                               ; preds = %53
  %62 = getelementptr inbounds [11 x i8], [11 x i8]* %1, i64 0, i64 0
  %63 = load i32, i32* %3, align 4
  %64 = sext i32 %63 to i64
  %65 = getelementptr inbounds i8, i8* %62, i64 %64
  %66 = getelementptr inbounds i8, i8* %65, i64 1
  store i8* %66, i8** %5, align 8
  br label %67

67:                                               ; preds = %77, %61
  %68 = load i8*, i8** %5, align 8
  %69 = load i8, i8* %68, align 1
  %70 = sext i8 %69 to i32
  %71 = icmp ne i32 %70, 0
  br i1 %71, label %72, label %80

72:                                               ; preds = %67
  %73 = load i8*, i8** %5, align 8
  %74 = load i8, i8* %73, align 1
  %75 = sext i8 %74 to i32
  %76 = call i32 (i8*, ...) @printf(i8* getelementptr inbounds ([3 x i8], [3 x i8]* @.str.1, i64 0, i64 0), i32 %75)
  br label %77

77:                                               ; preds = %72
  %78 = load i8*, i8** %5, align 8
  %79 = getelementptr inbounds i8, i8* %78, i32 1
  store i8* %79, i8** %5, align 8
  br label %67

80:                                               ; preds = %67
  %81 = call i32 (i8*, ...) @printf(i8* getelementptr inbounds ([2 x i8], [2 x i8]* @.str.3, i64 0, i64 0))
  br label %84

82:                                               ; preds = %53
  %83 = call i32 (i8*, ...) @printf(i8* getelementptr inbounds ([2 x i8], [2 x i8]* @.str.3, i64 0, i64 0))
  br label %84

84:                                               ; preds = %82, %80
  br label %7

85:                                               ; preds = %7
  ret void
}

declare dso_local i32 @__isoc99_scanf(i8*, ...) #1

declare dso_local i32 @printf(i8*, ...) #1

; Function Attrs: nounwind readonly
declare dso_local i64 @strlen(i8*) #2


!llvm.module.flags = !{!0}
!llvm.ident = !{!1}

!0 = !{i32 1, !"wchar_size", i32 4}
!1 = !{!"clang version 10.0.0-4ubuntu1 "}
